; Function Attrs: mustprogress uwtable
define dso_local noundef nonnull align 8 dereferenceable(8) ptr @_ZN7msdfgen7Contour7addEdgeEv(ptr noundef nonnull align 8 dereferenceable(24) %this) local_unnamed_addr #0 align 2 personality ptr @__gxx_personality_v0 {
entry:
  %_M_finish.i = getelementptr inbounds nuw i8, ptr %this, i64 8
  %0 = load ptr, ptr %_M_finish.i, align 8
  %1 = load ptr, ptr %this, align 8
  %sub.ptr.lhs.cast.i = ptrtoint ptr %0 to i64
  %sub.ptr.rhs.cast.i = ptrtoint ptr %1 to i64
  %sub.ptr.sub.i = sub i64 %sub.ptr.lhs.cast.i, %sub.ptr.rhs.cast.i
  %cmp.i.not = icmp eq i64 %sub.ptr.sub.i, -8
  br i1 %cmp.i.not, label %if.then5.i, label %if.then.i

if.then.i:                                        ; preds = %entry
  tail call void @_ZNSt6vectorIN7msdfgen10EdgeHolderESaIS1_EE17_M_default_appendEm(ptr noundef nonnull align 8 dereferenceable(24) %this, i64 noundef 1)
  %.pre = load ptr, ptr %_M_finish.i, align 8
  br label %_ZNSt6vectorIN7msdfgen10EdgeHolderESaIS1_EE6resizeEm.exit

if.then5.i:                                       ; preds = %entry
  %tobool.not.i.i = icmp eq ptr %0, %1
  br i1 %tobool.not.i.i, label %_ZNSt6vectorIN7msdfgen10EdgeHolderESaIS1_EE6resizeEm.exit, label %for.body.i.i.i.i.i

for.body.i.i.i.i.i:                               ; preds = %if.then5.i, %for.body.i.i.i.i.i
  %__first.addr.04.i.i.i.i.i = phi ptr [ %incdec.ptr.i.i.i.i.i, %for.body.i.i.i.i.i ], [ %1, %if.then5.i ]
  tail call void @_ZN7msdfgen10EdgeHolderD1Ev(ptr noundef nonnull align 8 dereferenceable(8) %__first.addr.04.i.i.i.i.i) #13
  %incdec.ptr.i.i.i.i.i = getelementptr inbounds nuw i8, ptr %__first.addr.04.i.i.i.i.i, i64 8
  %cmp.not.i.i.i.i.i = icmp eq ptr %incdec.ptr.i.i.i.i.i, %0
  br i1 %cmp.not.i.i.i.i.i, label %invoke.cont.i.i, label %for.body.i.i.i.i.i, !llvm.loop !5

invoke.cont.i.i:                                  ; preds = %for.body.i.i.i.i.i
  store ptr %1, ptr %_M_finish.i, align 8
  br label %_ZNSt6vectorIN7msdfgen10EdgeHolderESaIS1_EE6resizeEm.exit

_ZNSt6vectorIN7msdfgen10EdgeHolderESaIS1_EE6resizeEm.exit: ; preds = %if.then.i, %if.then5.i, %invoke.cont.i.i
  %2 = phi ptr [ %.pre, %if.then.i ], [ %0, %if.then5.i ], [ %1, %invoke.cont.i.i ]
  %add.ptr.i.i = getelementptr inbounds i8, ptr %2, i64 -8
  ret ptr %add.ptr.i.i
}